CCS PCM C Compiler, Version 5.049, 5967               23-Apr-24 10:00

               Filename:   E:\san tech\Bhavankumar D Output\PIC\Cruise Control\Cruise.lst

               ROM used:   1222 words (15%)
                           Largest free fragment is 2048
               RAM used:   15 (4%) at main() level
                           40 (11%) worst case
               Stack used: 4 locations
               Stack size: 8

*
0000:  MOVLW  04
0001:  MOVWF  0A
0002:  GOTO   424
0003:  NOP
.................... #include <16F886.h>  
.................... //////////// Standard Header file for the PIC16F886 device //////////////// 
.................... /////////////////////////////////////////////////////////////////////////// 
.................... ////        (C) Copyright 1996, 2014 Custom Computer Services          //// 
.................... //// This source code may only be used by licensed users of the CCS C  //// 
.................... //// compiler.  This source code may only be distributed to other      //// 
.................... //// licensed users of the CCS C compiler.  No other use, reproduction //// 
.................... //// or distribution is permitted without written permission.          //// 
.................... //// Derivative programs created using this software in object code    //// 
.................... //// form are not restricted in any way.                               //// 
.................... /////////////////////////////////////////////////////////////////////////// 
.................... #device PIC16F886 
0004:  BCF    0A.0
0005:  BCF    0A.1
0006:  BCF    0A.2
0007:  ADDWF  02,F
0008:  RETLW  28
0009:  RETLW  0C
000A:  RETLW  01
000B:  RETLW  06
000C:  DATA 0C,10
000D:  DATA 20,10
000E:  DATA F7,32
000F:  DATA EC,31
0010:  DATA EF,36
0011:  DATA 65,00
0012:  DATA 0C,2B
0013:  DATA 61,36
0014:  DATA F5,32
0015:  DATA BA,12
0016:  DATA EC,3A
0017:  DATA 00,00
0018:  DATA 8A,39
0019:  DATA F0,32
001A:  DATA 65,32
001B:  DATA BA,12
001C:  DATA E6,25
001D:  DATA CD,17
001E:  DATA 68,39
001F:  DATA 00,06
*
0126:  MOVF   0B,W
0127:  MOVWF  29
0128:  BCF    0B.7
0129:  BSF    03.5
012A:  BSF    03.6
012B:  BSF    0C.7
012C:  BSF    0C.0
012D:  NOP
012E:  NOP
012F:  BCF    03.5
0130:  BCF    03.6
0131:  BTFSC  29.7
0132:  BSF    0B.7
0133:  BSF    03.6
0134:  MOVF   0C,W
0135:  ANDLW  7F
0136:  BTFSC  03.2
0137:  GOTO   17A
0138:  BCF    03.6
0139:  MOVWF  29
013A:  BSF    03.6
013B:  MOVF   0D,W
013C:  BCF    03.6
013D:  MOVWF  2A
013E:  BSF    03.6
013F:  MOVF   0F,W
0140:  BCF    03.6
0141:  MOVWF  2B
0142:  MOVF   29,W
0143:  MOVWF  36
0144:  CALL   0F2
0145:  MOVF   2A,W
0146:  BSF    03.6
0147:  MOVWF  0D
0148:  BCF    03.6
0149:  MOVF   2B,W
014A:  BSF    03.6
014B:  MOVWF  0F
014C:  BCF    03.6
014D:  MOVF   0B,W
014E:  MOVWF  2C
014F:  BCF    0B.7
0150:  BSF    03.5
0151:  BSF    03.6
0152:  BSF    0C.7
0153:  BSF    0C.0
0154:  NOP
0155:  NOP
0156:  BCF    03.5
0157:  BCF    03.6
0158:  BTFSC  2C.7
0159:  BSF    0B.7
015A:  BSF    03.6
015B:  RLF    0C,W
015C:  RLF    0E,W
015D:  ANDLW  7F
015E:  BTFSC  03.2
015F:  GOTO   17A
0160:  BCF    03.6
0161:  MOVWF  29
0162:  BSF    03.6
0163:  MOVF   0D,W
0164:  BCF    03.6
0165:  MOVWF  2A
0166:  BSF    03.6
0167:  MOVF   0F,W
0168:  BCF    03.6
0169:  MOVWF  2B
016A:  MOVF   29,W
016B:  MOVWF  36
016C:  CALL   0F2
016D:  MOVF   2A,W
016E:  BSF    03.6
016F:  MOVWF  0D
0170:  BCF    03.6
0171:  MOVF   2B,W
0172:  BSF    03.6
0173:  MOVWF  0F
0174:  INCF   0D,F
0175:  BTFSC  03.2
0176:  INCF   0F,F
0177:  BCF    03.6
0178:  GOTO   126
0179:  BSF    03.6
017A:  BCF    03.6
017B:  BCF    0A.3
017C:  BCF    0A.4
017D:  GOTO   454 (RETURN)
017E:  CLRF   78
017F:  CLRF   79
0180:  CLRF   77
0181:  CLRF   7A
0182:  MOVF   2C,W
0183:  BTFSS  03.2
0184:  GOTO   188
0185:  MOVF   2B,W
0186:  BTFSC  03.2
0187:  GOTO   1A2
0188:  MOVLW  10
0189:  MOVWF  2D
018A:  BCF    03.0
018B:  RLF    29,F
018C:  RLF    2A,F
018D:  RLF    77,F
018E:  RLF    7A,F
018F:  MOVF   2C,W
0190:  SUBWF  7A,W
0191:  BTFSS  03.2
0192:  GOTO   195
0193:  MOVF   2B,W
0194:  SUBWF  77,W
0195:  BTFSS  03.0
0196:  GOTO   19E
0197:  MOVF   2B,W
0198:  SUBWF  77,F
0199:  BTFSS  03.0
019A:  DECF   7A,F
019B:  MOVF   2C,W
019C:  SUBWF  7A,F
019D:  BSF    03.0
019E:  RLF    78,F
019F:  RLF    79,F
01A0:  DECFSZ 2D,F
01A1:  GOTO   18A
01A2:  BCF    0A.3
01A3:  BCF    0A.4
01A4:  GOTO   47C (RETURN)
01A5:  MOVLW  8E
01A6:  MOVWF  77
01A7:  MOVF   2A,W
01A8:  MOVWF  78
01A9:  MOVF   29,W
01AA:  MOVWF  79
01AB:  CLRF   7A
01AC:  MOVF   78,F
01AD:  BTFSS  03.2
01AE:  GOTO   1B9
01AF:  MOVF   79,W
01B0:  MOVWF  78
01B1:  CLRF   79
01B2:  MOVLW  08
01B3:  SUBWF  77,F
01B4:  MOVF   78,F
01B5:  BTFSS  03.2
01B6:  GOTO   1B9
01B7:  CLRF   77
01B8:  GOTO   1C1
01B9:  BCF    03.0
01BA:  BTFSC  78.7
01BB:  GOTO   1C0
01BC:  RLF    79,F
01BD:  RLF    78,F
01BE:  DECF   77,F
01BF:  GOTO   1B9
01C0:  BCF    78.7
01C1:  BCF    0A.3
01C2:  BCF    0A.4
01C3:  GOTO   483 (RETURN)
01C4:  MOVF   0B,W
01C5:  MOVWF  2A
01C6:  BCF    0B.7
01C7:  BSF    03.5
01C8:  BSF    03.6
01C9:  BSF    0C.7
01CA:  BSF    0C.0
01CB:  NOP
01CC:  NOP
01CD:  BCF    03.5
01CE:  BCF    03.6
01CF:  BTFSC  2A.7
01D0:  BSF    0B.7
01D1:  BTFSC  03.0
01D2:  GOTO   1FB
01D3:  BSF    03.6
01D4:  MOVF   0C,W
01D5:  ANDLW  7F
01D6:  BCF    03.6
01D7:  MOVWF  2A
01D8:  BSF    03.6
01D9:  MOVF   0D,W
01DA:  BCF    03.6
01DB:  MOVWF  2B
01DC:  BSF    03.6
01DD:  MOVF   0F,W
01DE:  BCF    03.6
01DF:  MOVWF  2C
01E0:  MOVF   2A,W
01E1:  MOVWF  36
01E2:  CALL   0F2
01E3:  MOVF   2B,W
01E4:  BSF    03.6
01E5:  MOVWF  0D
01E6:  BCF    03.6
01E7:  MOVF   2C,W
01E8:  BSF    03.6
01E9:  MOVWF  0F
01EA:  BCF    03.6
01EB:  MOVF   0B,W
01EC:  MOVWF  2D
01ED:  BCF    0B.7
01EE:  BSF    03.5
01EF:  BSF    03.6
01F0:  BSF    0C.7
01F1:  BSF    0C.0
01F2:  NOP
01F3:  NOP
01F4:  BCF    03.5
01F5:  BCF    03.6
01F6:  BTFSC  2D.7
01F7:  BSF    0B.7
01F8:  DECFSZ 29,F
01F9:  GOTO   1FB
01FA:  GOTO   21A
01FB:  BSF    03.6
01FC:  RLF    0C,W
01FD:  RLF    0E,W
01FE:  ANDLW  7F
01FF:  BCF    03.6
0200:  MOVWF  2A
0201:  BSF    03.6
0202:  MOVF   0D,W
0203:  BCF    03.6
0204:  MOVWF  2B
0205:  BSF    03.6
0206:  MOVF   0F,W
0207:  BCF    03.6
0208:  MOVWF  2C
0209:  MOVF   2A,W
020A:  MOVWF  36
020B:  CALL   0F2
020C:  MOVF   2B,W
020D:  BSF    03.6
020E:  MOVWF  0D
020F:  BCF    03.6
0210:  MOVF   2C,W
0211:  BSF    03.6
0212:  MOVWF  0F
0213:  INCF   0D,F
0214:  BTFSC  03.2
0215:  INCF   0F,F
0216:  BCF    03.0
0217:  BCF    03.6
0218:  DECFSZ 29,F
0219:  GOTO   1C4
021A:  RETURN
021B:  CLRF   31
021C:  MOVF   04,W
021D:  MOVWF  30
021E:  BCF    31.0
021F:  BTFSC  03.7
0220:  BSF    31.0
0221:  SWAPF  2A,W
0222:  IORLW  F0
0223:  MOVWF  2C
0224:  ADDWF  2C,F
0225:  ADDLW  E2
0226:  MOVWF  2D
0227:  ADDLW  32
0228:  MOVWF  2F
0229:  MOVF   2A,W
022A:  ANDLW  0F
022B:  ADDWF  2D,F
022C:  ADDWF  2D,F
022D:  ADDWF  2F,F
022E:  ADDLW  E9
022F:  MOVWF  2E
0230:  ADDWF  2E,F
0231:  ADDWF  2E,F
0232:  SWAPF  29,W
0233:  ANDLW  0F
0234:  ADDWF  2E,F
0235:  ADDWF  2F,F
0236:  RLF    2E,F
0237:  RLF    2F,F
0238:  COMF   2F,F
0239:  RLF    2F,F
023A:  MOVF   29,W
023B:  ANDLW  0F
023C:  ADDWF  2F,F
023D:  RLF    2C,F
023E:  MOVLW  07
023F:  MOVWF  2B
0240:  MOVLW  0A
0241:  ADDWF  2F,F
0242:  DECF   2E,F
0243:  BTFSS  03.0
0244:  GOTO   241
0245:  ADDWF  2E,F
0246:  DECF   2D,F
0247:  BTFSS  03.0
0248:  GOTO   245
0249:  ADDWF  2D,F
024A:  DECF   2C,F
024B:  BTFSS  03.0
024C:  GOTO   249
024D:  ADDWF  2C,F
024E:  DECF   2B,F
024F:  BTFSS  03.0
0250:  GOTO   24D
0251:  MOVLW  2B
0252:  MOVWF  04
0253:  BCF    03.7
0254:  MOVLW  07
0255:  ANDWF  30,W
0256:  BCF    30.6
0257:  ADDWF  04,F
0258:  MOVLW  2F
0259:  SUBWF  04,W
025A:  BTFSC  03.2
025B:  BSF    30.6
025C:  MOVF   00,W
025D:  MOVWF  77
025E:  BTFSS  03.2
025F:  GOTO   268
0260:  BTFSC  30.6
0261:  GOTO   268
0262:  BTFSC  30.4
0263:  GOTO   27A
0264:  BTFSC  30.3
0265:  GOTO   268
0266:  MOVLW  20
0267:  GOTO   26B
0268:  BSF    30.3
0269:  BCF    30.4
026A:  MOVLW  30
026B:  ADDWF  77,F
026C:  CLRF   2A
026D:  MOVF   04,W
026E:  MOVWF  29
026F:  BCF    2A.0
0270:  BTFSC  03.7
0271:  BSF    2A.0
0272:  MOVF   77,W
0273:  MOVWF  36
0274:  CALL   0F2
0275:  MOVF   29,W
0276:  MOVWF  04
0277:  BCF    03.7
0278:  BTFSC  2A.0
0279:  BSF    03.7
027A:  INCF   04,F
027B:  BTFSS  30.6
027C:  GOTO   258
027D:  BCF    0A.3
027E:  BCF    0A.4
027F:  GOTO   49C (RETURN)
0280:  BTFSC  03.1
0281:  GOTO   285
0282:  MOVLW  3E
0283:  MOVWF  04
0284:  BCF    03.7
0285:  CLRF   77
0286:  CLRF   78
0287:  CLRF   79
0288:  CLRF   7A
0289:  CLRF   3E
028A:  CLRF   3F
028B:  CLRF   40
028C:  CLRF   41
028D:  MOVF   3D,W
028E:  IORWF  3C,W
028F:  IORWF  3B,W
0290:  IORWF  3A,W
0291:  BTFSC  03.2
0292:  GOTO   2C3
0293:  MOVLW  20
0294:  MOVWF  42
0295:  BCF    03.0
0296:  RLF    36,F
0297:  RLF    37,F
0298:  RLF    38,F
0299:  RLF    39,F
029A:  RLF    3E,F
029B:  RLF    3F,F
029C:  RLF    40,F
029D:  RLF    41,F
029E:  MOVF   3D,W
029F:  SUBWF  41,W
02A0:  BTFSS  03.2
02A1:  GOTO   2AC
02A2:  MOVF   3C,W
02A3:  SUBWF  40,W
02A4:  BTFSS  03.2
02A5:  GOTO   2AC
02A6:  MOVF   3B,W
02A7:  SUBWF  3F,W
02A8:  BTFSS  03.2
02A9:  GOTO   2AC
02AA:  MOVF   3A,W
02AB:  SUBWF  3E,W
02AC:  BTFSS  03.0
02AD:  GOTO   2BD
02AE:  MOVF   3A,W
02AF:  SUBWF  3E,F
02B0:  MOVF   3B,W
02B1:  BTFSS  03.0
02B2:  INCFSZ 3B,W
02B3:  SUBWF  3F,F
02B4:  MOVF   3C,W
02B5:  BTFSS  03.0
02B6:  INCFSZ 3C,W
02B7:  SUBWF  40,F
02B8:  MOVF   3D,W
02B9:  BTFSS  03.0
02BA:  INCFSZ 3D,W
02BB:  SUBWF  41,F
02BC:  BSF    03.0
02BD:  RLF    77,F
02BE:  RLF    78,F
02BF:  RLF    79,F
02C0:  RLF    7A,F
02C1:  DECFSZ 42,F
02C2:  GOTO   295
02C3:  MOVF   3E,W
02C4:  MOVWF  00
02C5:  INCF   04,F
02C6:  MOVF   3F,W
02C7:  MOVWF  00
02C8:  INCF   04,F
02C9:  MOVF   40,W
02CA:  MOVWF  00
02CB:  INCF   04,F
02CC:  MOVF   41,W
02CD:  MOVWF  00
02CE:  RETURN
02CF:  MOVF   04,W
02D0:  MOVWF  2E
02D1:  MOVF   2D,W
02D2:  MOVWF  30
02D3:  BTFSC  03.2
02D4:  GOTO   361
02D5:  MOVF   2C,W
02D6:  MOVWF  39
02D7:  MOVF   2B,W
02D8:  MOVWF  38
02D9:  MOVF   2A,W
02DA:  MOVWF  37
02DB:  MOVF   29,W
02DC:  MOVWF  36
02DD:  CLRF   3D
02DE:  CLRF   3C
02DF:  MOVLW  20
02E0:  MOVWF  3B
02E1:  MOVLW  82
02E2:  MOVWF  3A
02E3:  MOVF   36,W
02E4:  BTFSC  03.2
02E5:  GOTO   353
02E6:  MOVWF  3E
02E7:  MOVF   3A,W
02E8:  BTFSC  03.2
02E9:  GOTO   353
02EA:  ADDWF  3E,F
02EB:  BTFSC  03.0
02EC:  GOTO   2F4
02ED:  MOVLW  7F
02EE:  SUBWF  3E,F
02EF:  BTFSS  03.0
02F0:  GOTO   353
02F1:  BTFSC  03.2
02F2:  GOTO   353
02F3:  GOTO   2F8
02F4:  MOVLW  81
02F5:  ADDWF  3E,F
02F6:  BTFSC  03.0
02F7:  GOTO   353
02F8:  MOVF   3E,W
02F9:  MOVWF  77
02FA:  CLRF   78
02FB:  CLRF   79
02FC:  CLRF   7A
02FD:  MOVF   37,W
02FE:  MOVWF  42
02FF:  BSF    42.7
0300:  MOVF   38,W
0301:  MOVWF  41
0302:  MOVF   39,W
0303:  MOVWF  40
0304:  MOVLW  18
0305:  MOVWF  3E
0306:  CLRF   3F
0307:  BTFSS  40.0
0308:  GOTO   321
0309:  MOVF   3D,W
030A:  ADDWF  7A,F
030B:  BTFSS  03.0
030C:  GOTO   313
030D:  INCF   79,F
030E:  BTFSS  03.2
030F:  GOTO   313
0310:  INCF   78,F
0311:  BTFSC  03.2
0312:  BSF    3F.7
0313:  MOVF   3C,W
0314:  ADDWF  79,F
0315:  BTFSS  03.0
0316:  GOTO   31A
0317:  INCF   78,F
0318:  BTFSC  03.2
0319:  BSF    3F.7
031A:  MOVF   3B,W
031B:  MOVWF  38
031C:  BSF    38.7
031D:  MOVF   38,W
031E:  ADDWF  78,F
031F:  BTFSC  03.0
0320:  BSF    3F.7
0321:  RLF    3F,F
0322:  RRF    78,F
0323:  RRF    79,F
0324:  RRF    7A,F
0325:  RRF    42,F
0326:  RRF    41,F
0327:  RRF    40,F
0328:  BCF    03.0
0329:  DECFSZ 3E,F
032A:  GOTO   306
032B:  MOVLW  01
032C:  ADDWF  77,F
032D:  BTFSC  03.0
032E:  GOTO   353
032F:  BTFSC  78.7
0330:  GOTO   338
0331:  RLF    42,F
0332:  RLF    7A,F
0333:  RLF    79,F
0334:  RLF    78,F
0335:  DECF   77,F
0336:  BTFSC  03.2
0337:  GOTO   353
0338:  BTFSS  42.7
0339:  GOTO   349
033A:  INCF   7A,F
033B:  BTFSS  03.2
033C:  GOTO   349
033D:  INCF   79,F
033E:  BTFSS  03.2
033F:  GOTO   349
0340:  INCF   78,F
0341:  BTFSS  03.2
0342:  GOTO   349
0343:  RRF    78,F
0344:  RRF    79,F
0345:  RRF    7A,F
0346:  INCF   77,F
0347:  BTFSC  03.2
0348:  GOTO   353
0349:  MOVF   37,W
034A:  MOVWF  3F
034B:  MOVF   3B,W
034C:  XORWF  3F,F
034D:  BTFSS  3F.7
034E:  GOTO   351
034F:  BSF    78.7
0350:  GOTO   357
0351:  BCF    78.7
0352:  GOTO   357
0353:  CLRF   77
0354:  CLRF   78
0355:  CLRF   79
0356:  CLRF   7A
0357:  MOVF   7A,W
0358:  MOVWF  2C
0359:  MOVF   79,W
035A:  MOVWF  2B
035B:  MOVF   78,W
035C:  MOVWF  2A
035D:  MOVF   77,W
035E:  MOVWF  29
035F:  DECFSZ 30,F
0360:  GOTO   2D5
0361:  MOVF   2C,W
0362:  MOVWF  39
0363:  MOVF   2B,W
0364:  MOVWF  38
0365:  MOVF   2A,W
0366:  MOVWF  37
0367:  MOVF   29,W
0368:  MOVWF  36
0369:  MOVF   36,W
036A:  SUBLW  B6
036B:  MOVWF  36
036C:  CLRF   7A
036D:  MOVF   37,W
036E:  MOVWF  3A
036F:  BSF    37.7
0370:  BCF    03.0
0371:  RRF    37,F
0372:  RRF    38,F
0373:  RRF    39,F
0374:  RRF    7A,F
0375:  RRF    79,F
0376:  RRF    78,F
0377:  RRF    77,F
0378:  DECFSZ 36,F
0379:  GOTO   370
037A:  BTFSS  3A.7
037B:  GOTO   387
037C:  COMF   77,F
037D:  COMF   78,F
037E:  COMF   79,F
037F:  COMF   7A,F
0380:  INCF   77,F
0381:  BTFSC  03.2
0382:  INCF   78,F
0383:  BTFSC  03.2
0384:  INCF   79,F
0385:  BTFSC  03.2
0386:  INCF   7A,F
0387:  MOVF   7A,W
0388:  MOVWF  2C
0389:  MOVF   79,W
038A:  MOVWF  2B
038B:  MOVF   78,W
038C:  MOVWF  2A
038D:  MOVF   77,W
038E:  MOVWF  29
038F:  BTFSS  2C.7
0390:  GOTO   39E
0391:  DECF   2E,F
0392:  BSF    2E.5
0393:  COMF   29,F
0394:  COMF   2A,F
0395:  COMF   2B,F
0396:  COMF   2C,F
0397:  INCF   29,F
0398:  BTFSC  03.2
0399:  INCF   2A,F
039A:  BTFSC  03.2
039B:  INCF   2B,F
039C:  BTFSC  03.2
039D:  INCF   2C,F
039E:  MOVLW  3B
039F:  MOVWF  35
03A0:  MOVLW  9A
03A1:  MOVWF  34
03A2:  MOVLW  CA
03A3:  MOVWF  33
03A4:  CLRF   32
03A5:  MOVLW  0A
03A6:  MOVWF  30
03A7:  MOVF   2D,W
03A8:  BTFSC  03.2
03A9:  INCF   2E,F
03AA:  BSF    03.1
03AB:  MOVLW  29
03AC:  MOVWF  04
03AD:  BCF    03.7
03AE:  MOVF   2C,W
03AF:  MOVWF  39
03B0:  MOVF   2B,W
03B1:  MOVWF  38
03B2:  MOVF   2A,W
03B3:  MOVWF  37
03B4:  MOVF   29,W
03B5:  MOVWF  36
03B6:  MOVF   35,W
03B7:  MOVWF  3D
03B8:  MOVF   34,W
03B9:  MOVWF  3C
03BA:  MOVF   33,W
03BB:  MOVWF  3B
03BC:  MOVF   32,W
03BD:  MOVWF  3A
03BE:  CALL   280
03BF:  MOVF   78,W
03C0:  MOVF   77,F
03C1:  BTFSS  03.2
03C2:  GOTO   3D6
03C3:  INCF   2D,W
03C4:  SUBWF  30,W
03C5:  BTFSC  03.2
03C6:  GOTO   3D6
03C7:  MOVF   2E,W
03C8:  BTFSC  03.2
03C9:  GOTO   3D8
03CA:  ANDLW  0F
03CB:  SUBWF  30,W
03CC:  BTFSC  03.2
03CD:  GOTO   3D0
03CE:  BTFSC  03.0
03CF:  GOTO   408
03D0:  BTFSC  2E.7
03D1:  GOTO   408
03D2:  BTFSC  2E.6
03D3:  GOTO   3D8
03D4:  MOVLW  20
03D5:  GOTO   404
03D6:  MOVLW  20
03D7:  ANDWF  2E,F
03D8:  BTFSS  2E.5
03D9:  GOTO   3E6
03DA:  BCF    2E.5
03DB:  MOVF   2D,W
03DC:  BTFSS  03.2
03DD:  DECF   2E,F
03DE:  MOVF   77,W
03DF:  MOVWF  2E
03E0:  MOVLW  2D
03E1:  MOVWF  36
03E2:  CALL   0F2
03E3:  MOVF   2E,W
03E4:  MOVWF  77
03E5:  CLRF   2E
03E6:  MOVF   2D,W
03E7:  SUBWF  30,W
03E8:  BTFSS  03.2
03E9:  GOTO   3F4
03EA:  MOVF   77,W
03EB:  MOVWF  2E
03EC:  MOVLW  2E
03ED:  MOVWF  36
03EE:  CALL   0F2
03EF:  MOVF   2E,W
03F0:  MOVWF  77
03F1:  MOVLW  20
03F2:  ANDWF  2E,F
03F3:  MOVLW  00
03F4:  MOVLW  30
03F5:  BTFSS  2E.5
03F6:  GOTO   404
03F7:  BCF    2E.5
03F8:  MOVF   2D,W
03F9:  BTFSS  03.2
03FA:  DECF   2E,F
03FB:  MOVF   77,W
03FC:  MOVWF  2E
03FD:  MOVLW  2D
03FE:  MOVWF  36
03FF:  CALL   0F2
0400:  MOVF   2E,W
0401:  MOVWF  77
0402:  CLRF   2E
0403:  MOVLW  30
0404:  ADDWF  77,F
0405:  MOVF   77,W
0406:  MOVWF  36
0407:  CALL   0F2
0408:  BCF    03.1
0409:  MOVF   35,W
040A:  MOVWF  39
040B:  MOVF   34,W
040C:  MOVWF  38
040D:  MOVF   33,W
040E:  MOVWF  37
040F:  MOVF   32,W
0410:  MOVWF  36
0411:  CLRF   3D
0412:  CLRF   3C
0413:  CLRF   3B
0414:  MOVLW  0A
0415:  MOVWF  3A
0416:  CALL   280
0417:  MOVF   7A,W
0418:  MOVWF  35
0419:  MOVF   79,W
041A:  MOVWF  34
041B:  MOVF   78,W
041C:  MOVWF  33
041D:  MOVF   77,W
041E:  MOVWF  32
041F:  DECFSZ 30,F
0420:  GOTO   3AA
0421:  BCF    0A.3
0422:  BCF    0A.4
0423:  GOTO   4B3 (RETURN)
....................  
.................... #list 
....................  
.................... #device adc=10 
.................... #fuses HS,NOWDT,NOPROTECT,BROWNOUT,PUT 
.................... #use delay(clock=20M)   
*
0020:  MOVLW  37
0021:  MOVWF  04
0022:  BCF    03.7
0023:  MOVF   00,W
0024:  BTFSC  03.2
0025:  GOTO   033
0026:  MOVLW  06
0027:  MOVWF  78
0028:  CLRF   77
0029:  DECFSZ 77,F
002A:  GOTO   029
002B:  DECFSZ 78,F
002C:  GOTO   028
002D:  MOVLW  7B
002E:  MOVWF  77
002F:  DECFSZ 77,F
0030:  GOTO   02F
0031:  DECFSZ 00,F
0032:  GOTO   026
0033:  RETURN
.................... #use rs232(baud=9600,xmit=PIN_c6, rcv=PIN_C7, ERRORS) 
.................... #include <flex_lcd.c> 
.................... // flex_lcd.c  
....................  
.................... // These pins are for the Microchip PicDem2-Plus board,  
.................... // which is what I used to test the driver.  Change these  
.................... // pins to fit your own board.  
....................  
.................... #define LCD_DB4   PIN_b4 
.................... #define LCD_DB5   PIN_b5  
.................... #define LCD_DB6   PIN_b6 
.................... #define LCD_DB7   PIN_b7 
....................  
.................... #define LCD_E     PIN_b2 
.................... #define LCD_RS    PIN_b0  
.................... #define LCD_RW    PIN_b1 
....................  
.................... // If you only want a 6-pin interface to your LCD, then  
.................... // connect the R/W pin on the LCD to ground, and comment  
.................... // out the following line.  
....................  
.................... #define USE_LCD_RW   1       
....................  
.................... //========================================  
....................  
.................... #define lcd_type 2        // 0=5x7, 1=5x10, 2=2 lines  
.................... #define lcd_line_two 0x40 // LCD RAM address for the 2nd line  
....................  
....................  
.................... int8 const LCD_INIT_STRING[4] =  
.................... {  
....................  0x20 | (lcd_type << 2), // Func set: 4-bit, 2 lines, 5x8 dots  
....................  0xc,                    // Display on  
....................  1,                      // Clear display  
....................  6                       // Increment cursor  
....................  };  
....................                                
....................  
.................... //-------------------------------------  
.................... void lcd_send_nibble(int8 nibble)  
.................... {  
.................... // Note:  !! converts an integer expression  
.................... // to a boolean (1 or 0).  
....................  output_bit(LCD_DB4, !!(nibble & 1));  
0034:  BTFSC  3E.0
0035:  GOTO   038
0036:  BCF    06.4
0037:  GOTO   039
0038:  BSF    06.4
0039:  BSF    03.5
003A:  BCF    06.4
....................  output_bit(LCD_DB5, !!(nibble & 2));   
003B:  BCF    03.5
003C:  BTFSC  3E.1
003D:  GOTO   040
003E:  BCF    06.5
003F:  GOTO   041
0040:  BSF    06.5
0041:  BSF    03.5
0042:  BCF    06.5
....................  output_bit(LCD_DB6, !!(nibble & 4));     
0043:  BCF    03.5
0044:  BTFSC  3E.2
0045:  GOTO   048
0046:  BCF    06.6
0047:  GOTO   049
0048:  BSF    06.6
0049:  BSF    03.5
004A:  BCF    06.6
....................  output_bit(LCD_DB7, !!(nibble & 8));     
004B:  BCF    03.5
004C:  BTFSC  3E.3
004D:  GOTO   050
004E:  BCF    06.7
004F:  GOTO   051
0050:  BSF    06.7
0051:  BSF    03.5
0052:  BCF    06.7
....................  
....................  delay_cycles(1);  
0053:  NOP
....................  output_high(LCD_E);  
0054:  BCF    06.2
0055:  BCF    03.5
0056:  BSF    06.2
....................  delay_us(2);  
0057:  MOVLW  03
0058:  MOVWF  77
0059:  DECFSZ 77,F
005A:  GOTO   059
....................  output_low(LCD_E);  
005B:  BSF    03.5
005C:  BCF    06.2
005D:  BCF    03.5
005E:  BCF    06.2
005F:  RETURN
.................... }  
....................  
.................... //-----------------------------------  
.................... // This sub-routine is only called by lcd_read_byte().  
.................... // It's not a stand-alone routine.  For example, the  
.................... // R/W signal is set high by lcd_read_byte() before  
.................... // this routine is called.       
....................  
.................... #ifdef USE_LCD_RW  
.................... int8 lcd_read_nibble(void)  
.................... {  
.................... int8 retval;  
.................... // Create bit variables so that we can easily set  
.................... // individual bits in the retval variable.  
.................... #bit retval_0 = retval.0  
.................... #bit retval_1 = retval.1  
.................... #bit retval_2 = retval.2  
.................... #bit retval_3 = retval.3  
....................  
.................... retval = 0;  
0060:  CLRF   3F
....................      
.................... output_high(LCD_E);  
0061:  BSF    03.5
0062:  BCF    06.2
0063:  BCF    03.5
0064:  BSF    06.2
.................... delay_cycles(1);  
0065:  NOP
....................  
.................... retval_0 = input(LCD_DB4);  
0066:  BSF    03.5
0067:  BSF    06.4
0068:  BCF    03.5
0069:  BCF    3F.0
006A:  BTFSC  06.4
006B:  BSF    3F.0
.................... retval_1 = input(LCD_DB5);  
006C:  BSF    03.5
006D:  BSF    06.5
006E:  BCF    03.5
006F:  BCF    3F.1
0070:  BTFSC  06.5
0071:  BSF    3F.1
.................... retval_2 = input(LCD_DB6);  
0072:  BSF    03.5
0073:  BSF    06.6
0074:  BCF    03.5
0075:  BCF    3F.2
0076:  BTFSC  06.6
0077:  BSF    3F.2
.................... retval_3 = input(LCD_DB7);  
0078:  BSF    03.5
0079:  BSF    06.7
007A:  BCF    03.5
007B:  BCF    3F.3
007C:  BTFSC  06.7
007D:  BSF    3F.3
....................    
.................... output_low(LCD_E);  
007E:  BSF    03.5
007F:  BCF    06.2
0080:  BCF    03.5
0081:  BCF    06.2
....................      
.................... return(retval);     
0082:  MOVF   3F,W
0083:  MOVWF  78
0084:  RETURN
.................... }     
.................... #endif  
....................  
.................... //---------------------------------------  
.................... // Read a byte from the LCD and return it.  
....................  
.................... #ifdef USE_LCD_RW  
.................... int8 lcd_read_byte(void)  
.................... {  
.................... int8 low;  
.................... int8 high;  
....................  
.................... output_high(LCD_RW);  
*
0089:  BSF    03.5
008A:  BCF    06.1
008B:  BCF    03.5
008C:  BSF    06.1
.................... delay_cycles(1);  
008D:  NOP
....................  
.................... high = lcd_read_nibble();  
008E:  CALL   060
008F:  MOVF   78,W
0090:  MOVWF  3E
....................  
.................... low = lcd_read_nibble();  
0091:  CALL   060
0092:  MOVF   78,W
0093:  MOVWF  3D
....................  
.................... return( (high<<4) | low);  
0094:  SWAPF  3E,W
0095:  MOVWF  77
0096:  MOVLW  F0
0097:  ANDWF  77,F
0098:  MOVF   77,W
0099:  IORWF  3D,W
009A:  MOVWF  78
.................... }  
.................... #endif  
....................  
.................... //----------------------------------------  
.................... // Send a byte to the LCD.  
.................... void lcd_send_byte(int8 address, int8 n)  
.................... {  
.................... output_low(LCD_RS);  
*
0085:  BSF    03.5
0086:  BCF    06.0
0087:  BCF    03.5
0088:  BCF    06.0
....................  
.................... #ifdef USE_LCD_RW  
.................... while(bit_test(lcd_read_byte(),7)) ;  
*
009B:  MOVF   78,W
009C:  MOVWF  3D
009D:  BTFSC  3D.7
009E:  GOTO   089
.................... #else  
.................... delay_us(60);   
.................... #endif  
....................  
.................... if(address)  
009F:  MOVF   3B,F
00A0:  BTFSC  03.2
00A1:  GOTO   0A7
....................    output_high(LCD_RS);  
00A2:  BSF    03.5
00A3:  BCF    06.0
00A4:  BCF    03.5
00A5:  BSF    06.0
00A6:  GOTO   0AB
.................... else  
....................    output_low(LCD_RS);  
00A7:  BSF    03.5
00A8:  BCF    06.0
00A9:  BCF    03.5
00AA:  BCF    06.0
....................        
....................  delay_cycles(1);  
00AB:  NOP
....................  
.................... #ifdef USE_LCD_RW  
.................... output_low(LCD_RW);  
00AC:  BSF    03.5
00AD:  BCF    06.1
00AE:  BCF    03.5
00AF:  BCF    06.1
.................... delay_cycles(1);  
00B0:  NOP
.................... #endif  
....................  
.................... output_low(LCD_E);  
00B1:  BSF    03.5
00B2:  BCF    06.2
00B3:  BCF    03.5
00B4:  BCF    06.2
....................  
.................... lcd_send_nibble(n >> 4);  
00B5:  SWAPF  3C,W
00B6:  MOVWF  3D
00B7:  MOVLW  0F
00B8:  ANDWF  3D,F
00B9:  MOVF   3D,W
00BA:  MOVWF  3E
00BB:  CALL   034
.................... lcd_send_nibble(n & 0xf);  
00BC:  MOVF   3C,W
00BD:  ANDLW  0F
00BE:  MOVWF  3D
00BF:  MOVWF  3E
00C0:  CALL   034
00C1:  RETURN
.................... }  
....................  
.................... //----------------------------  
.................... void lcd_init(void)  
.................... {  
.................... int8 i;  
....................  
.................... output_low(LCD_RS);  
00C2:  BSF    03.5
00C3:  BCF    06.0
00C4:  BCF    03.5
00C5:  BCF    06.0
....................  
.................... #ifdef USE_LCD_RW  
.................... output_low(LCD_RW);  
00C6:  BSF    03.5
00C7:  BCF    06.1
00C8:  BCF    03.5
00C9:  BCF    06.1
.................... #endif  
....................  
.................... output_low(LCD_E);  
00CA:  BSF    03.5
00CB:  BCF    06.2
00CC:  BCF    03.5
00CD:  BCF    06.2
....................  
.................... delay_ms(15);  
00CE:  MOVLW  0F
00CF:  MOVWF  37
00D0:  CALL   020
....................  
.................... for(i=0 ;i < 3; i++)  
00D1:  CLRF   29
00D2:  MOVF   29,W
00D3:  SUBLW  02
00D4:  BTFSS  03.0
00D5:  GOTO   0DE
....................    {  
....................     lcd_send_nibble(0x03);  
00D6:  MOVLW  03
00D7:  MOVWF  3E
00D8:  CALL   034
....................     delay_ms(5);  
00D9:  MOVLW  05
00DA:  MOVWF  37
00DB:  CALL   020
00DC:  INCF   29,F
00DD:  GOTO   0D2
....................    }  
....................  
.................... lcd_send_nibble(0x02);  
00DE:  MOVLW  02
00DF:  MOVWF  3E
00E0:  CALL   034
....................  
.................... for(i=0; i < sizeof(LCD_INIT_STRING); i++)  
00E1:  CLRF   29
00E2:  MOVF   29,W
00E3:  SUBLW  03
00E4:  BTFSS  03.0
00E5:  GOTO   0EF
....................    {  
....................     lcd_send_byte(0, LCD_INIT_STRING[i]);  
00E6:  MOVF   29,W
00E7:  CALL   004
00E8:  MOVWF  2A
00E9:  CLRF   3B
00EA:  MOVF   2A,W
00EB:  MOVWF  3C
00EC:  CALL   085
....................      
....................     // If the R/W signal is not used, then  
....................     // the busy bit can't be polled.  One of  
....................     // the init commands takes longer than  
....................     // the hard-coded delay of 60 us, so in  
....................     // that case, lets just do a 5 ms delay  
....................     // after all four of them.  
....................     #ifndef USE_LCD_RW  
00ED:  INCF   29,F
00EE:  GOTO   0E2
....................     delay_ms(5);  
....................     #endif  
....................    }  
00EF:  BCF    0A.3
00F0:  BCF    0A.4
00F1:  GOTO   44D (RETURN)
....................  
.................... }  
....................  
.................... //----------------------------  
....................  
.................... void lcd_gotoxy(int8 x, int8 y)  
.................... {  
.................... int8 address;  
....................  
.................... if(y != 1)  
*
0109:  DECFSZ 38,W
010A:  GOTO   10C
010B:  GOTO   10F
....................    address = lcd_line_two;  
010C:  MOVLW  40
010D:  MOVWF  39
010E:  GOTO   110
.................... else  
....................    address=0;  
010F:  CLRF   39
....................  
.................... address += x-1;  
0110:  MOVLW  01
0111:  SUBWF  37,W
0112:  ADDWF  39,F
.................... lcd_send_byte(0, 0x80 | address);  
0113:  MOVF   39,W
0114:  IORLW  80
0115:  MOVWF  3A
0116:  CLRF   3B
0117:  MOVF   3A,W
0118:  MOVWF  3C
0119:  CALL   085
.................... }  
....................  
.................... //-----------------------------  
.................... void lcd_putc(char c)  
.................... {  
....................  switch(c)  
*
00F2:  MOVF   36,W
00F3:  XORLW  0C
00F4:  BTFSC  03.2
00F5:  GOTO   0FD
00F6:  XORLW  06
00F7:  BTFSC  03.2
00F8:  GOTO   105
00F9:  XORLW  02
00FA:  BTFSC  03.2
00FB:  GOTO   11B
00FC:  GOTO   120
....................    {  
....................     case '\f':  
....................       lcd_send_byte(0,1);  
00FD:  CLRF   3B
00FE:  MOVLW  01
00FF:  MOVWF  3C
0100:  CALL   085
....................       delay_ms(2);  
0101:  MOVLW  02
0102:  MOVWF  37
0103:  CALL   020
....................       break;  
0104:  GOTO   125
....................      
....................     case '\n':  
....................        lcd_gotoxy(1,2);  
0105:  MOVLW  01
0106:  MOVWF  37
0107:  MOVLW  02
0108:  MOVWF  38
....................        break;  
*
011A:  GOTO   125
....................      
....................     case '\b':  
....................        lcd_send_byte(0,0x10);  
011B:  CLRF   3B
011C:  MOVLW  10
011D:  MOVWF  3C
011E:  CALL   085
....................        break;  
011F:  GOTO   125
....................      
....................     default:  
....................        lcd_send_byte(1,c);  
0120:  MOVLW  01
0121:  MOVWF  3B
0122:  MOVF   36,W
0123:  MOVWF  3C
0124:  CALL   085
....................        break;  
....................    }  
0125:  RETURN
.................... }  
....................  
.................... //------------------------------  
.................... #ifdef USE_LCD_RW  
.................... char lcd_getc(int8 x, int8 y)  
.................... {  
.................... char value;  
....................  
.................... lcd_gotoxy(x,y);  
....................  
.................... // Wait until busy flag is low.  
.................... while(bit_test(lcd_read_byte(),7));   
....................  
.................... output_high(LCD_RS);  
.................... value = lcd_read_byte();  
.................... output_low(lcd_RS);  
....................  
.................... return(value);  
.................... }  
.................... #endif 
....................  
....................  
.................... unsigned int16 value; 
.................... void main() 
*
0424:  MOVF   03,W
0425:  ANDLW  1F
0426:  MOVWF  03
0427:  CLRF   20
0428:  BSF    03.5
0429:  BSF    03.6
042A:  BSF    07.3
042B:  MOVLW  08
042C:  BCF    03.6
042D:  MOVWF  19
042E:  MOVLW  02
042F:  MOVWF  1A
0430:  MOVLW  A6
0431:  MOVWF  18
0432:  MOVLW  90
0433:  BCF    03.5
0434:  MOVWF  18
0435:  CLRF   24
0436:  CLRF   23
0437:  BSF    03.5
0438:  BSF    03.6
0439:  MOVF   09,W
043A:  ANDLW  C0
043B:  MOVWF  09
043C:  BCF    03.6
043D:  BCF    1F.4
043E:  BCF    1F.5
043F:  MOVLW  00
0440:  BSF    03.6
0441:  MOVWF  08
0442:  BCF    03.5
0443:  CLRF   07
0444:  CLRF   08
0445:  CLRF   09
0446:  BCF    03.7
0447:  BCF    03.6
0448:  CLRF   28
0449:  CLRF   27
044A:  CLRF   26
044B:  CLRF   25
.................... { 
.................... float speed=0; 
....................  
....................    
.................... lcd_init(); 
044C:  GOTO   0C2
.................... printf(lcd_putc,"\f   welcome"); 
044D:  MOVLW  0C
044E:  BSF    03.6
044F:  MOVWF  0D
0450:  MOVLW  00
0451:  MOVWF  0F
0452:  BCF    03.6
0453:  GOTO   126
....................  delay_ms(500); 
0454:  MOVLW  02
0455:  MOVWF  29
0456:  MOVLW  FA
0457:  MOVWF  37
0458:  CALL   020
0459:  DECFSZ 29,F
045A:  GOTO   456
....................  
.................... while(1) 
....................    { 
.................... setup_timer_1(t1_external | T1_DIV_BY_1); 
045B:  MOVLW  07
045C:  MOVWF  10
....................       set_timer1(0);    
045D:  CLRF   0E
045E:  CLRF   0F
045F:  CLRF   0E
....................       delay_ms(1000);         // in protues, should be 1000/3 
0460:  MOVLW  04
0461:  MOVWF  29
0462:  MOVLW  FA
0463:  MOVWF  37
0464:  CALL   020
0465:  DECFSZ 29,F
0466:  GOTO   462
....................       setup_timer_1(T1_DISABLED); 
0467:  CLRF   10
....................       value=get_timer1(); 
0468:  MOVF   0F,W
0469:  MOVWF  7A
046A:  MOVF   0E,W
046B:  MOVWF  77
046C:  MOVF   0F,W
046D:  SUBWF  7A,W
046E:  BTFSS  03.2
046F:  GOTO   468
0470:  MOVF   77,W
0471:  MOVWF  21
0472:  MOVF   7A,W
0473:  MOVWF  22
....................       speed=value/3; 
0474:  MOVF   22,W
0475:  MOVWF  2A
0476:  MOVF   21,W
0477:  MOVWF  29
0478:  CLRF   2C
0479:  MOVLW  03
047A:  MOVWF  2B
047B:  GOTO   17E
047C:  MOVF   79,W
047D:  MOVWF  7A
047E:  MOVF   78,W
047F:  MOVWF  29
0480:  MOVF   79,W
0481:  MOVWF  2A
0482:  GOTO   1A5
0483:  MOVF   7A,W
0484:  MOVWF  28
0485:  MOVF   79,W
0486:  MOVWF  27
0487:  MOVF   78,W
0488:  MOVWF  26
0489:  MOVF   77,W
048A:  MOVWF  25
....................     
....................       printf(lcd_putc,"\fValue:%lu",value); 
048B:  MOVLW  12
048C:  BSF    03.6
048D:  MOVWF  0D
048E:  MOVLW  00
048F:  MOVWF  0F
0490:  BCF    03.0
0491:  MOVLW  07
0492:  BCF    03.6
0493:  MOVWF  29
0494:  CALL   1C4
0495:  MOVLW  10
0496:  MOVWF  04
0497:  MOVF   22,W
0498:  MOVWF  2A
0499:  MOVF   21,W
049A:  MOVWF  29
049B:  GOTO   21B
....................       printf(lcd_putc,"\nspeed:%fKM/hr",speed); 
049C:  MOVLW  18
049D:  BSF    03.6
049E:  MOVWF  0D
049F:  MOVLW  00
04A0:  MOVWF  0F
04A1:  BCF    03.0
04A2:  MOVLW  07
04A3:  BCF    03.6
04A4:  MOVWF  29
04A5:  CALL   1C4
04A6:  MOVLW  89
04A7:  MOVWF  04
04A8:  MOVF   28,W
04A9:  MOVWF  2C
04AA:  MOVF   27,W
04AB:  MOVWF  2B
04AC:  MOVF   26,W
04AD:  MOVWF  2A
04AE:  MOVF   25,W
04AF:  MOVWF  29
04B0:  MOVLW  02
04B1:  MOVWF  2D
04B2:  GOTO   2CF
04B3:  MOVLW  1C
04B4:  BSF    03.6
04B5:  MOVWF  0D
04B6:  MOVLW  00
04B7:  MOVWF  0F
04B8:  BSF    03.0
04B9:  MOVLW  05
04BA:  BCF    03.6
04BB:  MOVWF  29
04BC:  CALL   1C4
....................       delay_ms(1000); 
04BD:  MOVLW  04
04BE:  MOVWF  29
04BF:  MOVLW  FA
04C0:  MOVWF  37
04C1:  CALL   020
04C2:  DECFSZ 29,F
04C3:  GOTO   4BF
04C4:  GOTO   45B
....................        
....................    } 
.................... } 
04C5:  SLEEP

Configuration Fuses:
   Word  1: 2FE2   HS NOWDT PUT MCLR NOPROTECT NOCPD BROWNOUT IESO FCMEN NOLVP NODEBUG
   Word  2: 0700   BORV40 NOWRT
