CCS PCM C Compiler, Version 5.049, 5967               18-Jun-24 17:27

               Filename:   E:\san tech\Bhavankumar D Output\PIC\Sump to overhead\s to oh.lst

               ROM used:   1266 words (15%)
                           Largest free fragment is 2048
               RAM used:   34 (9%) at main() level
                           47 (13%) worst case
               Stack used: 2 locations
               Stack size: 8

*
0000:  MOVLW  04
0001:  MOVWF  0A
0002:  GOTO   44E
0003:  NOP
.................... #include <16F877a.h> 
.................... //////////// Standard Header file for the PIC16F877A device //////////////// 
.................... /////////////////////////////////////////////////////////////////////////// 
.................... ////        (C) Copyright 1996, 2014 Custom Computer Services          //// 
.................... //// This source code may only be used by licensed users of the CCS C  //// 
.................... //// compiler.  This source code may only be distributed to other      //// 
.................... //// licensed users of the CCS C compiler.  No other use, reproduction //// 
.................... //// or distribution is permitted without written permission.          //// 
.................... //// Derivative programs created using this software in object code    //// 
.................... //// form are not restricted in any way.                               //// 
.................... /////////////////////////////////////////////////////////////////////////// 
.................... #device PIC16F877A 
0004:  DATA C8,32
0005:  DATA 6C,36
0006:  DATA 6F,00
0007:  DATA 0C,10
0008:  DATA CD,30
0009:  DATA EE,3A
000A:  DATA 61,36
000B:  DATA 00,00
000C:  DATA 0C,10
000D:  DATA D4,30
000E:  DATA EE,35
000F:  DATA 20,23
0010:  DATA 75,36
0011:  DATA 6C,00
0012:  DATA 0C,10
0013:  DATA D4,30
0014:  DATA EE,35
0015:  DATA 20,23
0016:  DATA 69,36
0017:  DATA EC,34
0018:  DATA EE,33
0019:  DATA 00,00
*
002E:  MOVF   0B,W
002F:  MOVWF  3C
0030:  BCF    0B.7
0031:  BSF    03.5
0032:  BSF    03.6
0033:  BSF    0C.7
0034:  BSF    0C.0
0035:  NOP
0036:  NOP
0037:  BCF    03.5
0038:  BCF    03.6
0039:  BTFSC  3C.7
003A:  BSF    0B.7
003B:  BSF    03.6
003C:  MOVF   0C,W
003D:  ANDLW  7F
003E:  BTFSC  03.2
003F:  GOTO   084
0040:  BCF    03.6
0041:  MOVWF  3C
0042:  BSF    03.6
0043:  MOVF   0D,W
0044:  BCF    03.6
0045:  MOVWF  3D
0046:  BSF    03.6
0047:  MOVF   0F,W
0048:  BCF    03.6
0049:  MOVWF  3E
004A:  MOVF   3C,W
004B:  BTFSS  0C.4
004C:  GOTO   04B
004D:  MOVWF  19
004E:  MOVF   3D,W
004F:  BSF    03.6
0050:  MOVWF  0D
0051:  BCF    03.6
0052:  MOVF   3E,W
0053:  BSF    03.6
0054:  MOVWF  0F
0055:  BCF    03.6
0056:  MOVF   0B,W
0057:  MOVWF  3F
0058:  BCF    0B.7
0059:  BSF    03.5
005A:  BSF    03.6
005B:  BSF    0C.7
005C:  BSF    0C.0
005D:  NOP
005E:  NOP
005F:  BCF    03.5
0060:  BCF    03.6
0061:  BTFSC  3F.7
0062:  BSF    0B.7
0063:  BSF    03.6
0064:  RLF    0C,W
0065:  RLF    0E,W
0066:  ANDLW  7F
0067:  BTFSC  03.2
0068:  GOTO   084
0069:  BCF    03.6
006A:  MOVWF  3C
006B:  BSF    03.6
006C:  MOVF   0D,W
006D:  BCF    03.6
006E:  MOVWF  3D
006F:  BSF    03.6
0070:  MOVF   0F,W
0071:  BCF    03.6
0072:  MOVWF  3E
0073:  MOVF   3C,W
0074:  BTFSS  0C.4
0075:  GOTO   074
0076:  MOVWF  19
0077:  MOVF   3D,W
0078:  BSF    03.6
0079:  MOVWF  0D
007A:  BCF    03.6
007B:  MOVF   3E,W
007C:  BSF    03.6
007D:  MOVWF  0F
007E:  INCF   0D,F
007F:  BTFSC  03.2
0080:  INCF   0F,F
0081:  BCF    03.6
0082:  GOTO   02E
0083:  BSF    03.6
0084:  BCF    03.6
0085:  RETURN
0086:  MOVLW  8E
0087:  MOVWF  77
0088:  MOVF   3D,W
0089:  MOVWF  78
008A:  MOVF   3C,W
008B:  MOVWF  79
008C:  CLRF   7A
008D:  MOVF   78,F
008E:  BTFSS  03.2
008F:  GOTO   09A
0090:  MOVF   79,W
0091:  MOVWF  78
0092:  CLRF   79
0093:  MOVLW  08
0094:  SUBWF  77,F
0095:  MOVF   78,F
0096:  BTFSS  03.2
0097:  GOTO   09A
0098:  CLRF   77
0099:  GOTO   0A2
009A:  BCF    03.0
009B:  BTFSC  78.7
009C:  GOTO   0A1
009D:  RLF    79,F
009E:  RLF    78,F
009F:  DECF   77,F
00A0:  GOTO   09A
00A1:  BCF    78.7
00A2:  RETURN
00A3:  MOVF   3C,W
00A4:  BTFSC  03.2
00A5:  GOTO   168
00A6:  MOVWF  48
00A7:  MOVF   40,W
00A8:  BTFSC  03.2
00A9:  GOTO   168
00AA:  SUBWF  48,F
00AB:  BTFSS  03.0
00AC:  GOTO   0B2
00AD:  MOVLW  7F
00AE:  ADDWF  48,F
00AF:  BTFSC  03.0
00B0:  GOTO   168
00B1:  GOTO   0B8
00B2:  MOVLW  81
00B3:  SUBWF  48,F
00B4:  BTFSS  03.0
00B5:  GOTO   168
00B6:  BTFSC  03.2
00B7:  GOTO   168
00B8:  MOVF   48,W
00B9:  MOVWF  77
00BA:  CLRF   78
00BB:  CLRF   79
00BC:  CLRF   7A
00BD:  CLRF   47
00BE:  MOVF   3D,W
00BF:  MOVWF  46
00C0:  BSF    46.7
00C1:  MOVF   3E,W
00C2:  MOVWF  45
00C3:  MOVF   3F,W
00C4:  MOVWF  44
00C5:  MOVLW  19
00C6:  MOVWF  48
00C7:  MOVF   43,W
00C8:  SUBWF  44,F
00C9:  BTFSC  03.0
00CA:  GOTO   0DB
00CB:  MOVLW  01
00CC:  SUBWF  45,F
00CD:  BTFSC  03.0
00CE:  GOTO   0DB
00CF:  SUBWF  46,F
00D0:  BTFSC  03.0
00D1:  GOTO   0DB
00D2:  SUBWF  47,F
00D3:  BTFSC  03.0
00D4:  GOTO   0DB
00D5:  INCF   47,F
00D6:  INCF   46,F
00D7:  INCF   45,F
00D8:  MOVF   43,W
00D9:  ADDWF  44,F
00DA:  GOTO   10D
00DB:  MOVF   42,W
00DC:  SUBWF  45,F
00DD:  BTFSC  03.0
00DE:  GOTO   0F6
00DF:  MOVLW  01
00E0:  SUBWF  46,F
00E1:  BTFSC  03.0
00E2:  GOTO   0F6
00E3:  SUBWF  47,F
00E4:  BTFSC  03.0
00E5:  GOTO   0F6
00E6:  INCF   47,F
00E7:  INCF   46,F
00E8:  MOVF   42,W
00E9:  ADDWF  45,F
00EA:  MOVF   43,W
00EB:  ADDWF  44,F
00EC:  BTFSS  03.0
00ED:  GOTO   10D
00EE:  INCF   45,F
00EF:  BTFSS  03.2
00F0:  GOTO   10D
00F1:  INCF   46,F
00F2:  BTFSS  03.2
00F3:  GOTO   10D
00F4:  INCF   47,F
00F5:  GOTO   10D
00F6:  MOVF   41,W
00F7:  IORLW  80
00F8:  SUBWF  46,F
00F9:  BTFSC  03.0
00FA:  GOTO   10C
00FB:  MOVLW  01
00FC:  SUBWF  47,F
00FD:  BTFSC  03.0
00FE:  GOTO   10C
00FF:  INCF   47,F
0100:  MOVF   41,W
0101:  IORLW  80
0102:  ADDWF  46,F
0103:  MOVF   42,W
0104:  ADDWF  45,F
0105:  BTFSS  03.0
0106:  GOTO   0EA
0107:  INCF   46,F
0108:  BTFSS  03.2
0109:  GOTO   0EA
010A:  INCF   47,F
010B:  GOTO   0EA
010C:  BSF    7A.0
010D:  DECFSZ 48,F
010E:  GOTO   110
010F:  GOTO   11B
0110:  BCF    03.0
0111:  RLF    44,F
0112:  RLF    45,F
0113:  RLF    46,F
0114:  RLF    47,F
0115:  BCF    03.0
0116:  RLF    7A,F
0117:  RLF    79,F
0118:  RLF    78,F
0119:  RLF    49,F
011A:  GOTO   0C7
011B:  BTFSS  49.0
011C:  GOTO   123
011D:  BCF    03.0
011E:  RRF    78,F
011F:  RRF    79,F
0120:  RRF    7A,F
0121:  RRF    49,F
0122:  GOTO   126
0123:  DECF   77,F
0124:  BTFSC  03.2
0125:  GOTO   168
0126:  BTFSC  49.7
0127:  GOTO   14F
0128:  BCF    03.0
0129:  RLF    44,F
012A:  RLF    45,F
012B:  RLF    46,F
012C:  RLF    47,F
012D:  MOVF   43,W
012E:  SUBWF  44,F
012F:  BTFSC  03.0
0130:  GOTO   13B
0131:  MOVLW  01
0132:  SUBWF  45,F
0133:  BTFSC  03.0
0134:  GOTO   13B
0135:  SUBWF  46,F
0136:  BTFSC  03.0
0137:  GOTO   13B
0138:  SUBWF  47,F
0139:  BTFSS  03.0
013A:  GOTO   15E
013B:  MOVF   42,W
013C:  SUBWF  45,F
013D:  BTFSC  03.0
013E:  GOTO   146
013F:  MOVLW  01
0140:  SUBWF  46,F
0141:  BTFSC  03.0
0142:  GOTO   146
0143:  SUBWF  47,F
0144:  BTFSS  03.0
0145:  GOTO   15E
0146:  MOVF   41,W
0147:  IORLW  80
0148:  SUBWF  46,F
0149:  BTFSC  03.0
014A:  GOTO   14F
014B:  MOVLW  01
014C:  SUBWF  47,F
014D:  BTFSS  03.0
014E:  GOTO   15E
014F:  INCF   7A,F
0150:  BTFSS  03.2
0151:  GOTO   15E
0152:  INCF   79,F
0153:  BTFSS  03.2
0154:  GOTO   15E
0155:  INCF   78,F
0156:  BTFSS  03.2
0157:  GOTO   15E
0158:  INCF   77,F
0159:  BTFSC  03.2
015A:  GOTO   168
015B:  RRF    78,F
015C:  RRF    79,F
015D:  RRF    7A,F
015E:  MOVF   3D,W
015F:  MOVWF  48
0160:  MOVF   41,W
0161:  XORWF  48,F
0162:  BTFSS  48.7
0163:  GOTO   166
0164:  BSF    78.7
0165:  GOTO   16C
0166:  BCF    78.7
0167:  GOTO   16C
0168:  CLRF   77
0169:  CLRF   78
016A:  CLRF   79
016B:  CLRF   7A
016C:  RETURN
016D:  MOVF   3C,W
016E:  BTFSC  03.2
016F:  GOTO   1DD
0170:  MOVWF  44
0171:  MOVF   40,W
0172:  BTFSC  03.2
0173:  GOTO   1DD
0174:  ADDWF  44,F
0175:  BTFSC  03.0
0176:  GOTO   17E
0177:  MOVLW  7F
0178:  SUBWF  44,F
0179:  BTFSS  03.0
017A:  GOTO   1DD
017B:  BTFSC  03.2
017C:  GOTO   1DD
017D:  GOTO   182
017E:  MOVLW  81
017F:  ADDWF  44,F
0180:  BTFSC  03.0
0181:  GOTO   1DD
0182:  MOVF   44,W
0183:  MOVWF  77
0184:  CLRF   78
0185:  CLRF   79
0186:  CLRF   7A
0187:  MOVF   3D,W
0188:  MOVWF  48
0189:  BSF    48.7
018A:  MOVF   3E,W
018B:  MOVWF  47
018C:  MOVF   3F,W
018D:  MOVWF  46
018E:  MOVLW  18
018F:  MOVWF  44
0190:  CLRF   45
0191:  BTFSS  46.0
0192:  GOTO   1AB
0193:  MOVF   43,W
0194:  ADDWF  7A,F
0195:  BTFSS  03.0
0196:  GOTO   19D
0197:  INCF   79,F
0198:  BTFSS  03.2
0199:  GOTO   19D
019A:  INCF   78,F
019B:  BTFSC  03.2
019C:  BSF    45.7
019D:  MOVF   42,W
019E:  ADDWF  79,F
019F:  BTFSS  03.0
01A0:  GOTO   1A4
01A1:  INCF   78,F
01A2:  BTFSC  03.2
01A3:  BSF    45.7
01A4:  MOVF   41,W
01A5:  MOVWF  3E
01A6:  BSF    3E.7
01A7:  MOVF   3E,W
01A8:  ADDWF  78,F
01A9:  BTFSC  03.0
01AA:  BSF    45.7
01AB:  RLF    45,F
01AC:  RRF    78,F
01AD:  RRF    79,F
01AE:  RRF    7A,F
01AF:  RRF    48,F
01B0:  RRF    47,F
01B1:  RRF    46,F
01B2:  BCF    03.0
01B3:  DECFSZ 44,F
01B4:  GOTO   190
01B5:  MOVLW  01
01B6:  ADDWF  77,F
01B7:  BTFSC  03.0
01B8:  GOTO   1DD
01B9:  BTFSC  78.7
01BA:  GOTO   1C2
01BB:  RLF    48,F
01BC:  RLF    7A,F
01BD:  RLF    79,F
01BE:  RLF    78,F
01BF:  DECF   77,F
01C0:  BTFSC  03.2
01C1:  GOTO   1DD
01C2:  BTFSS  48.7
01C3:  GOTO   1D3
01C4:  INCF   7A,F
01C5:  BTFSS  03.2
01C6:  GOTO   1D3
01C7:  INCF   79,F
01C8:  BTFSS  03.2
01C9:  GOTO   1D3
01CA:  INCF   78,F
01CB:  BTFSS  03.2
01CC:  GOTO   1D3
01CD:  RRF    78,F
01CE:  RRF    79,F
01CF:  RRF    7A,F
01D0:  INCF   77,F
01D1:  BTFSC  03.2
01D2:  GOTO   1DD
01D3:  MOVF   3D,W
01D4:  MOVWF  45
01D5:  MOVF   41,W
01D6:  XORWF  45,F
01D7:  BTFSS  45.7
01D8:  GOTO   1DB
01D9:  BSF    78.7
01DA:  GOTO   1E1
01DB:  BCF    78.7
01DC:  GOTO   1E1
01DD:  CLRF   77
01DE:  CLRF   78
01DF:  CLRF   79
01E0:  CLRF   7A
01E1:  RETURN
*
02B1:  MOVF   3D,W
02B2:  MOVWF  44
02B3:  MOVF   41,W
02B4:  XORWF  44,F
02B5:  BTFSS  44.7
02B6:  GOTO   2BC
02B7:  BCF    03.2
02B8:  BCF    03.0
02B9:  BTFSC  3D.7
02BA:  BSF    03.0
02BB:  GOTO   2EF
02BC:  MOVF   3D,W
02BD:  MOVWF  44
02BE:  MOVF   40,W
02BF:  MOVWF  45
02C0:  MOVF   3C,W
02C1:  SUBWF  45,F
02C2:  BTFSC  03.2
02C3:  GOTO   2CA
02C4:  BTFSS  44.7
02C5:  GOTO   2EF
02C6:  MOVF   03,W
02C7:  XORLW  01
02C8:  MOVWF  03
02C9:  GOTO   2EF
02CA:  MOVF   41,W
02CB:  MOVWF  45
02CC:  MOVF   3D,W
02CD:  SUBWF  45,F
02CE:  BTFSC  03.2
02CF:  GOTO   2D6
02D0:  BTFSS  44.7
02D1:  GOTO   2EF
02D2:  MOVF   03,W
02D3:  XORLW  01
02D4:  MOVWF  03
02D5:  GOTO   2EF
02D6:  MOVF   42,W
02D7:  MOVWF  45
02D8:  MOVF   3E,W
02D9:  SUBWF  45,F
02DA:  BTFSC  03.2
02DB:  GOTO   2E2
02DC:  BTFSS  44.7
02DD:  GOTO   2EF
02DE:  MOVF   03,W
02DF:  XORLW  01
02E0:  MOVWF  03
02E1:  GOTO   2EF
02E2:  MOVF   43,W
02E3:  MOVWF  45
02E4:  MOVF   3F,W
02E5:  SUBWF  45,F
02E6:  BTFSC  03.2
02E7:  GOTO   2EE
02E8:  BTFSS  44.7
02E9:  GOTO   2EF
02EA:  MOVF   03,W
02EB:  XORLW  01
02EC:  MOVWF  03
02ED:  GOTO   2EF
02EE:  BCF    03.0
02EF:  RETURN
....................  
.................... #list 
....................  
.................... #device adc=10 
.................... #fuses HS,NOWDT,NOPROTECT,BROWNOUT,PUT 
.................... #use delay(clock=20000000) 
*
001A:  MOVLW  3D
001B:  MOVWF  04
001C:  BCF    03.7
001D:  MOVF   00,W
001E:  BTFSC  03.2
001F:  GOTO   02D
0020:  MOVLW  06
0021:  MOVWF  78
0022:  CLRF   77
0023:  DECFSZ 77,F
0024:  GOTO   023
0025:  DECFSZ 78,F
0026:  GOTO   022
0027:  MOVLW  7B
0028:  MOVWF  77
0029:  DECFSZ 77,F
002A:  GOTO   029
002B:  DECFSZ 00,F
002C:  GOTO   020
002D:  RETURN
.................... #use rs232(baud=9600,xmit=PIN_c6, rcv=PIN_C7, ERRORS) 
.................... float flow=0; 
.................... float s=0,oh=0; 
.................... float g=0,h=0,i=0; 
.................... void overhead(); 
.................... void conversion(); 
.................... void light(); 
.................... void main(){ 
*
044E:  MOVF   03,W
044F:  ANDLW  1F
0450:  MOVWF  03
0451:  CLRF   20
0452:  MOVLW  81
0453:  BSF    03.5
0454:  MOVWF  19
0455:  MOVLW  A6
0456:  MOVWF  18
0457:  MOVLW  90
0458:  BCF    03.5
0459:  MOVWF  18
045A:  CLRF   24
045B:  CLRF   23
045C:  CLRF   22
045D:  CLRF   21
045E:  CLRF   28
045F:  CLRF   27
0460:  CLRF   26
0461:  CLRF   25
0462:  CLRF   2C
0463:  CLRF   2B
0464:  CLRF   2A
0465:  CLRF   29
0466:  CLRF   30
0467:  CLRF   2F
0468:  CLRF   2E
0469:  CLRF   2D
046A:  CLRF   34
046B:  CLRF   33
046C:  CLRF   32
046D:  CLRF   31
046E:  CLRF   38
046F:  CLRF   37
0470:  CLRF   36
0471:  CLRF   35
0472:  CLRF   3A
0473:  CLRF   39
0474:  MOVLW  FF
0475:  MOVWF  3B
0476:  BSF    03.5
0477:  BSF    1F.0
0478:  BSF    1F.1
0479:  BSF    1F.2
047A:  BCF    1F.3
047B:  MOVLW  07
047C:  MOVWF  1C
047D:  BCF    03.7
.................... setup_adc(ADC_CLOCK_INTERNAL); 
047E:  BCF    1F.6
047F:  BCF    03.5
0480:  BSF    1F.6
0481:  BSF    1F.7
0482:  BSF    03.5
0483:  BSF    1F.7
0484:  BCF    03.5
0485:  BSF    1F.0
.................... setup_adc_ports(ALL_ANALOG); 
0486:  BSF    03.5
0487:  BCF    1F.0
0488:  BCF    1F.1
0489:  BCF    1F.2
048A:  BCF    1F.3
.................... delay_ms(100); 
048B:  MOVLW  64
048C:  BCF    03.5
048D:  MOVWF  3D
048E:  CALL   01A
.................... printf("Hello"); 
048F:  MOVLW  04
0490:  BSF    03.6
0491:  MOVWF  0D
0492:  MOVLW  00
0493:  MOVWF  0F
0494:  BCF    03.6
0495:  CALL   02E
.................... delay_ms(500); 
0496:  MOVLW  02
0497:  MOVWF  3C
0498:  MOVLW  FA
0499:  MOVWF  3D
049A:  CALL   01A
049B:  DECFSZ 3C,F
049C:  GOTO   498
.................... while(1){ 
.................... conversion(); 
049D:  GOTO   1E2
.................... light(); 
049E:  GOTO   2F0
.................... if(input(pin_B4)==0){ 
049F:  BSF    03.5
04A0:  BSF    06.4
04A1:  BCF    03.5
04A2:  BTFSC  06.4
04A3:  GOTO   4D6
.................... output_high(pin_c4); 
04A4:  BCF    3B.4
04A5:  MOVF   3B,W
04A6:  BSF    03.5
04A7:  MOVWF  07
04A8:  BCF    03.5
04A9:  BSF    07.4
.................... if(flow>=80 && s>=40){ 
04AA:  CLRF   3F
04AB:  CLRF   3E
04AC:  MOVLW  20
04AD:  MOVWF  3D
04AE:  MOVLW  85
04AF:  MOVWF  3C
04B0:  MOVF   24,W
04B1:  MOVWF  43
04B2:  MOVF   23,W
04B3:  MOVWF  42
04B4:  MOVF   22,W
04B5:  MOVWF  41
04B6:  MOVF   21,W
04B7:  MOVWF  40
04B8:  CALL   2B1
04B9:  BTFSC  03.0
04BA:  GOTO   4BD
04BB:  BTFSS  03.2
04BC:  GOTO   4D2
04BD:  CLRF   3F
04BE:  CLRF   3E
04BF:  MOVLW  20
04C0:  MOVWF  3D
04C1:  MOVLW  84
04C2:  MOVWF  3C
04C3:  MOVF   28,W
04C4:  MOVWF  43
04C5:  MOVF   27,W
04C6:  MOVWF  42
04C7:  MOVF   26,W
04C8:  MOVWF  41
04C9:  MOVF   25,W
04CA:  MOVWF  40
04CB:  CALL   2B1
04CC:  BTFSC  03.0
04CD:  GOTO   4D0
04CE:  BTFSS  03.2
04CF:  GOTO   4D2
.................... overhead(); 
04D0:  CALL   415
.................... } 
04D1:  GOTO   4D6
.................... else{ 
.................... output_low(pin_B0); 
04D2:  BSF    03.5
04D3:  BCF    06.0
04D4:  BCF    03.5
04D5:  BCF    06.0
.................... } 
.................... } 
.................... if(input(pin_B4)==1){ 
04D6:  BSF    03.5
04D7:  BSF    06.4
04D8:  BCF    03.5
04D9:  BTFSS  06.4
04DA:  GOTO   4F0
.................... printf("\f Manual"); 
04DB:  MOVLW  07
04DC:  BSF    03.6
04DD:  MOVWF  0D
04DE:  MOVLW  00
04DF:  MOVWF  0F
04E0:  BCF    03.6
04E1:  CALL   02E
.................... delay_ms(500); 
04E2:  MOVLW  02
04E3:  MOVWF  3C
04E4:  MOVLW  FA
04E5:  MOVWF  3D
04E6:  CALL   01A
04E7:  DECFSZ 3C,F
04E8:  GOTO   4E4
.................... output_high(pin_c3); 
04E9:  BCF    3B.3
04EA:  MOVF   3B,W
04EB:  BSF    03.5
04EC:  MOVWF  07
04ED:  BCF    03.5
04EE:  BSF    07.3
.................... overhead(); 
04EF:  CALL   415
.................... } 
04F0:  GOTO   49D
.................... } 
.................... } 
.................... void overhead(){ 
04F1:  SLEEP
.................... if(oh>=90){ 
*
0415:  CLRF   3F
0416:  CLRF   3E
0417:  MOVLW  34
0418:  MOVWF  3D
0419:  MOVLW  85
041A:  MOVWF  3C
041B:  MOVF   2C,W
041C:  MOVWF  43
041D:  MOVF   2B,W
041E:  MOVWF  42
041F:  MOVF   2A,W
0420:  MOVWF  41
0421:  MOVF   29,W
0422:  MOVWF  40
0423:  CALL   2B1
0424:  BTFSC  03.0
0425:  GOTO   428
0426:  BTFSS  03.2
0427:  GOTO   43B
.................... printf("\f Tank Full"); 
0428:  MOVLW  0C
0429:  BSF    03.6
042A:  MOVWF  0D
042B:  MOVLW  00
042C:  MOVWF  0F
042D:  BCF    03.6
042E:  CALL   02E
.................... delay_ms(100); 
042F:  MOVLW  64
0430:  MOVWF  3D
0431:  CALL   01A
.................... output_high(pin_B7); 
0432:  BSF    03.5
0433:  BCF    06.7
0434:  BCF    03.5
0435:  BSF    06.7
.................... output_low(pin_B0); 
0436:  BSF    03.5
0437:  BCF    06.0
0438:  BCF    03.5
0439:  BCF    06.0
.................... } 
043A:  GOTO   44D
.................... else{ 
.................... printf("\f Tank Filling"); 
043B:  MOVLW  12
043C:  BSF    03.6
043D:  MOVWF  0D
043E:  MOVLW  00
043F:  MOVWF  0F
0440:  BCF    03.6
0441:  CALL   02E
.................... delay_ms(100); 
0442:  MOVLW  64
0443:  MOVWF  3D
0444:  CALL   01A
.................... output_high(pin_B0); 
0445:  BSF    03.5
0446:  BCF    06.0
0447:  BCF    03.5
0448:  BSF    06.0
.................... output_low(pin_B7); 
0449:  BSF    03.5
044A:  BCF    06.7
044B:  BCF    03.5
044C:  BCF    06.7
.................... } 
044D:  RETURN
.................... } 
.................... void conversion(){ 
.................... set_adc_channel(0); 
*
01E2:  MOVLW  00
01E3:  MOVWF  78
01E4:  MOVF   1F,W
01E5:  ANDLW  C7
01E6:  IORWF  78,W
01E7:  MOVWF  1F
.................... g = read_adc();  
01E8:  BSF    1F.2
01E9:  BTFSC  1F.2
01EA:  GOTO   1E9
01EB:  MOVF   1E,W
01EC:  MOVWF  7A
01ED:  BSF    03.5
01EE:  MOVF   1E,W
01EF:  BCF    03.5
01F0:  MOVWF  3C
01F1:  MOVF   1E,W
01F2:  MOVWF  3D
01F3:  CALL   086
01F4:  MOVF   7A,W
01F5:  MOVWF  30
01F6:  MOVF   79,W
01F7:  MOVWF  2F
01F8:  MOVF   78,W
01F9:  MOVWF  2E
01FA:  MOVF   77,W
01FB:  MOVWF  2D
.................... flow=100*(g/1023); 
01FC:  MOVF   30,W
01FD:  MOVWF  3F
01FE:  MOVF   2F,W
01FF:  MOVWF  3E
0200:  MOVF   2E,W
0201:  MOVWF  3D
0202:  MOVF   2D,W
0203:  MOVWF  3C
0204:  CLRF   43
0205:  MOVLW  C0
0206:  MOVWF  42
0207:  MOVLW  7F
0208:  MOVWF  41
0209:  MOVLW  88
020A:  MOVWF  40
020B:  CALL   0A3
020C:  CLRF   3F
020D:  CLRF   3E
020E:  MOVLW  48
020F:  MOVWF  3D
0210:  MOVLW  85
0211:  MOVWF  3C
0212:  MOVF   7A,W
0213:  MOVWF  43
0214:  MOVF   79,W
0215:  MOVWF  42
0216:  MOVF   78,W
0217:  MOVWF  41
0218:  MOVF   77,W
0219:  MOVWF  40
021A:  CALL   16D
021B:  MOVF   7A,W
021C:  MOVWF  24
021D:  MOVF   79,W
021E:  MOVWF  23
021F:  MOVF   78,W
0220:  MOVWF  22
0221:  MOVF   77,W
0222:  MOVWF  21
.................... delay_ms(100); 
0223:  MOVLW  64
0224:  MOVWF  3D
0225:  CALL   01A
.................... set_adc_channel(1); 
0226:  MOVLW  08
0227:  MOVWF  78
0228:  MOVF   1F,W
0229:  ANDLW  C7
022A:  IORWF  78,W
022B:  MOVWF  1F
.................... h = read_adc();  
022C:  BSF    1F.2
022D:  BTFSC  1F.2
022E:  GOTO   22D
022F:  MOVF   1E,W
0230:  MOVWF  7A
0231:  BSF    03.5
0232:  MOVF   1E,W
0233:  BCF    03.5
0234:  MOVWF  3C
0235:  MOVF   1E,W
0236:  MOVWF  3D
0237:  CALL   086
0238:  MOVF   7A,W
0239:  MOVWF  34
023A:  MOVF   79,W
023B:  MOVWF  33
023C:  MOVF   78,W
023D:  MOVWF  32
023E:  MOVF   77,W
023F:  MOVWF  31
.................... s=100*(h/1023); 
0240:  MOVF   34,W
0241:  MOVWF  3F
0242:  MOVF   33,W
0243:  MOVWF  3E
0244:  MOVF   32,W
0245:  MOVWF  3D
0246:  MOVF   31,W
0247:  MOVWF  3C
0248:  CLRF   43
0249:  MOVLW  C0
024A:  MOVWF  42
024B:  MOVLW  7F
024C:  MOVWF  41
024D:  MOVLW  88
024E:  MOVWF  40
024F:  CALL   0A3
0250:  CLRF   3F
0251:  CLRF   3E
0252:  MOVLW  48
0253:  MOVWF  3D
0254:  MOVLW  85
0255:  MOVWF  3C
0256:  MOVF   7A,W
0257:  MOVWF  43
0258:  MOVF   79,W
0259:  MOVWF  42
025A:  MOVF   78,W
025B:  MOVWF  41
025C:  MOVF   77,W
025D:  MOVWF  40
025E:  CALL   16D
025F:  MOVF   7A,W
0260:  MOVWF  28
0261:  MOVF   79,W
0262:  MOVWF  27
0263:  MOVF   78,W
0264:  MOVWF  26
0265:  MOVF   77,W
0266:  MOVWF  25
.................... delay_ms(100); 
0267:  MOVLW  64
0268:  MOVWF  3D
0269:  CALL   01A
.................... set_adc_channel(2); 
026A:  MOVLW  10
026B:  MOVWF  78
026C:  MOVF   1F,W
026D:  ANDLW  C7
026E:  IORWF  78,W
026F:  MOVWF  1F
.................... i = read_adc();  
0270:  BSF    1F.2
0271:  BTFSC  1F.2
0272:  GOTO   271
0273:  MOVF   1E,W
0274:  MOVWF  7A
0275:  BSF    03.5
0276:  MOVF   1E,W
0277:  BCF    03.5
0278:  MOVWF  3C
0279:  MOVF   1E,W
027A:  MOVWF  3D
027B:  CALL   086
027C:  MOVF   7A,W
027D:  MOVWF  38
027E:  MOVF   79,W
027F:  MOVWF  37
0280:  MOVF   78,W
0281:  MOVWF  36
0282:  MOVF   77,W
0283:  MOVWF  35
.................... oh=100*(i/1023); 
0284:  MOVF   38,W
0285:  MOVWF  3F
0286:  MOVF   37,W
0287:  MOVWF  3E
0288:  MOVF   36,W
0289:  MOVWF  3D
028A:  MOVF   35,W
028B:  MOVWF  3C
028C:  CLRF   43
028D:  MOVLW  C0
028E:  MOVWF  42
028F:  MOVLW  7F
0290:  MOVWF  41
0291:  MOVLW  88
0292:  MOVWF  40
0293:  CALL   0A3
0294:  CLRF   3F
0295:  CLRF   3E
0296:  MOVLW  48
0297:  MOVWF  3D
0298:  MOVLW  85
0299:  MOVWF  3C
029A:  MOVF   7A,W
029B:  MOVWF  43
029C:  MOVF   79,W
029D:  MOVWF  42
029E:  MOVF   78,W
029F:  MOVWF  41
02A0:  MOVF   77,W
02A1:  MOVWF  40
02A2:  CALL   16D
02A3:  MOVF   7A,W
02A4:  MOVWF  2C
02A5:  MOVF   79,W
02A6:  MOVWF  2B
02A7:  MOVF   78,W
02A8:  MOVWF  2A
02A9:  MOVF   77,W
02AA:  MOVWF  29
.................... delay_ms(100); 
02AB:  MOVLW  64
02AC:  MOVWF  3D
02AD:  CALL   01A
02AE:  BCF    0A.3
02AF:  BCF    0A.4
02B0:  GOTO   49E (RETURN)
.................... } 
.................... void light(){ 
.................... if(s>=90){ 
*
02F0:  CLRF   3F
02F1:  CLRF   3E
02F2:  MOVLW  34
02F3:  MOVWF  3D
02F4:  MOVLW  85
02F5:  MOVWF  3C
02F6:  MOVF   28,W
02F7:  MOVWF  43
02F8:  MOVF   27,W
02F9:  MOVWF  42
02FA:  MOVF   26,W
02FB:  MOVWF  41
02FC:  MOVF   25,W
02FD:  MOVWF  40
02FE:  CALL   2B1
02FF:  BTFSC  03.0
0300:  GOTO   303
0301:  BTFSS  03.2
0302:  GOTO   312
.................... output_high(pin_B1); 
0303:  BSF    03.5
0304:  BCF    06.1
0305:  BCF    03.5
0306:  BSF    06.1
.................... output_high(pin_B2); 
0307:  BSF    03.5
0308:  BCF    06.2
0309:  BCF    03.5
030A:  BSF    06.2
.................... output_high(pin_B3); 
030B:  BSF    03.5
030C:  BCF    06.3
030D:  BCF    03.5
030E:  BSF    06.3
.................... delay_ms(100); 
030F:  MOVLW  64
0310:  MOVWF  3D
0311:  CALL   01A
.................... } 
.................... if(s>=45 && s<90){ 
0312:  CLRF   3F
0313:  CLRF   3E
0314:  MOVLW  34
0315:  MOVWF  3D
0316:  MOVLW  84
0317:  MOVWF  3C
0318:  MOVF   28,W
0319:  MOVWF  43
031A:  MOVF   27,W
031B:  MOVWF  42
031C:  MOVF   26,W
031D:  MOVWF  41
031E:  MOVF   25,W
031F:  MOVWF  40
0320:  CALL   2B1
0321:  BTFSC  03.0
0322:  GOTO   325
0323:  BTFSS  03.2
0324:  GOTO   345
0325:  MOVF   28,W
0326:  MOVWF  3F
0327:  MOVF   27,W
0328:  MOVWF  3E
0329:  MOVF   26,W
032A:  MOVWF  3D
032B:  MOVF   25,W
032C:  MOVWF  3C
032D:  CLRF   43
032E:  CLRF   42
032F:  MOVLW  34
0330:  MOVWF  41
0331:  MOVLW  85
0332:  MOVWF  40
0333:  CALL   2B1
0334:  BTFSS  03.0
0335:  GOTO   345
.................... output_low(pin_B1); 
0336:  BSF    03.5
0337:  BCF    06.1
0338:  BCF    03.5
0339:  BCF    06.1
.................... output_high(pin_B2); 
033A:  BSF    03.5
033B:  BCF    06.2
033C:  BCF    03.5
033D:  BSF    06.2
.................... output_high(pin_B3); 
033E:  BSF    03.5
033F:  BCF    06.3
0340:  BCF    03.5
0341:  BSF    06.3
.................... delay_ms(100); 
0342:  MOVLW  64
0343:  MOVWF  3D
0344:  CALL   01A
.................... } 
.................... if(s>=10 && s<45){ 
0345:  CLRF   3F
0346:  CLRF   3E
0347:  MOVLW  20
0348:  MOVWF  3D
0349:  MOVLW  82
034A:  MOVWF  3C
034B:  MOVF   28,W
034C:  MOVWF  43
034D:  MOVF   27,W
034E:  MOVWF  42
034F:  MOVF   26,W
0350:  MOVWF  41
0351:  MOVF   25,W
0352:  MOVWF  40
0353:  CALL   2B1
0354:  BTFSC  03.0
0355:  GOTO   358
0356:  BTFSS  03.2
0357:  GOTO   378
0358:  MOVF   28,W
0359:  MOVWF  3F
035A:  MOVF   27,W
035B:  MOVWF  3E
035C:  MOVF   26,W
035D:  MOVWF  3D
035E:  MOVF   25,W
035F:  MOVWF  3C
0360:  CLRF   43
0361:  CLRF   42
0362:  MOVLW  34
0363:  MOVWF  41
0364:  MOVLW  84
0365:  MOVWF  40
0366:  CALL   2B1
0367:  BTFSS  03.0
0368:  GOTO   378
.................... output_low(pin_B1); 
0369:  BSF    03.5
036A:  BCF    06.1
036B:  BCF    03.5
036C:  BCF    06.1
.................... output_low(pin_B2); 
036D:  BSF    03.5
036E:  BCF    06.2
036F:  BCF    03.5
0370:  BCF    06.2
.................... output_high(pin_B3); 
0371:  BSF    03.5
0372:  BCF    06.3
0373:  BCF    03.5
0374:  BSF    06.3
.................... delay_ms(100); 
0375:  MOVLW  64
0376:  MOVWF  3D
0377:  CALL   01A
.................... } 
.................... if(oh>=90){ 
0378:  CLRF   3F
0379:  CLRF   3E
037A:  MOVLW  34
037B:  MOVWF  3D
037C:  MOVLW  85
037D:  MOVWF  3C
037E:  MOVF   2C,W
037F:  MOVWF  43
0380:  MOVF   2B,W
0381:  MOVWF  42
0382:  MOVF   2A,W
0383:  MOVWF  41
0384:  MOVF   29,W
0385:  MOVWF  40
0386:  CALL   2B1
0387:  BTFSC  03.0
0388:  GOTO   38B
0389:  BTFSS  03.2
038A:  GOTO   3A0
.................... output_high(pin_C2); 
038B:  BCF    3B.2
038C:  MOVF   3B,W
038D:  BSF    03.5
038E:  MOVWF  07
038F:  BCF    03.5
0390:  BSF    07.2
.................... output_high(pin_C1); 
0391:  BCF    3B.1
0392:  MOVF   3B,W
0393:  BSF    03.5
0394:  MOVWF  07
0395:  BCF    03.5
0396:  BSF    07.1
.................... output_high(pin_C0); 
0397:  BCF    3B.0
0398:  MOVF   3B,W
0399:  BSF    03.5
039A:  MOVWF  07
039B:  BCF    03.5
039C:  BSF    07.0
.................... delay_ms(100); 
039D:  MOVLW  64
039E:  MOVWF  3D
039F:  CALL   01A
.................... } 
.................... if(oh>=45 && oh<90){ 
03A0:  CLRF   3F
03A1:  CLRF   3E
03A2:  MOVLW  34
03A3:  MOVWF  3D
03A4:  MOVLW  84
03A5:  MOVWF  3C
03A6:  MOVF   2C,W
03A7:  MOVWF  43
03A8:  MOVF   2B,W
03A9:  MOVWF  42
03AA:  MOVF   2A,W
03AB:  MOVWF  41
03AC:  MOVF   29,W
03AD:  MOVWF  40
03AE:  CALL   2B1
03AF:  BTFSC  03.0
03B0:  GOTO   3B3
03B1:  BTFSS  03.2
03B2:  GOTO   3D9
03B3:  MOVF   2C,W
03B4:  MOVWF  3F
03B5:  MOVF   2B,W
03B6:  MOVWF  3E
03B7:  MOVF   2A,W
03B8:  MOVWF  3D
03B9:  MOVF   29,W
03BA:  MOVWF  3C
03BB:  CLRF   43
03BC:  CLRF   42
03BD:  MOVLW  34
03BE:  MOVWF  41
03BF:  MOVLW  85
03C0:  MOVWF  40
03C1:  CALL   2B1
03C2:  BTFSS  03.0
03C3:  GOTO   3D9
.................... output_low(pin_C2); 
03C4:  BCF    3B.2
03C5:  MOVF   3B,W
03C6:  BSF    03.5
03C7:  MOVWF  07
03C8:  BCF    03.5
03C9:  BCF    07.2
.................... output_high(pin_C1); 
03CA:  BCF    3B.1
03CB:  MOVF   3B,W
03CC:  BSF    03.5
03CD:  MOVWF  07
03CE:  BCF    03.5
03CF:  BSF    07.1
.................... output_high(pin_C0); 
03D0:  BCF    3B.0
03D1:  MOVF   3B,W
03D2:  BSF    03.5
03D3:  MOVWF  07
03D4:  BCF    03.5
03D5:  BSF    07.0
.................... delay_ms(100); 
03D6:  MOVLW  64
03D7:  MOVWF  3D
03D8:  CALL   01A
.................... } 
.................... if(oh>=10 && oh<45){ 
03D9:  CLRF   3F
03DA:  CLRF   3E
03DB:  MOVLW  20
03DC:  MOVWF  3D
03DD:  MOVLW  82
03DE:  MOVWF  3C
03DF:  MOVF   2C,W
03E0:  MOVWF  43
03E1:  MOVF   2B,W
03E2:  MOVWF  42
03E3:  MOVF   2A,W
03E4:  MOVWF  41
03E5:  MOVF   29,W
03E6:  MOVWF  40
03E7:  CALL   2B1
03E8:  BTFSC  03.0
03E9:  GOTO   3EC
03EA:  BTFSS  03.2
03EB:  GOTO   412
03EC:  MOVF   2C,W
03ED:  MOVWF  3F
03EE:  MOVF   2B,W
03EF:  MOVWF  3E
03F0:  MOVF   2A,W
03F1:  MOVWF  3D
03F2:  MOVF   29,W
03F3:  MOVWF  3C
03F4:  CLRF   43
03F5:  CLRF   42
03F6:  MOVLW  34
03F7:  MOVWF  41
03F8:  MOVLW  84
03F9:  MOVWF  40
03FA:  CALL   2B1
03FB:  BTFSS  03.0
03FC:  GOTO   412
.................... output_low(pin_C2); 
03FD:  BCF    3B.2
03FE:  MOVF   3B,W
03FF:  BSF    03.5
0400:  MOVWF  07
0401:  BCF    03.5
0402:  BCF    07.2
.................... output_low(pin_C1); 
0403:  BCF    3B.1
0404:  MOVF   3B,W
0405:  BSF    03.5
0406:  MOVWF  07
0407:  BCF    03.5
0408:  BCF    07.1
.................... output_high(pin_C0); 
0409:  BCF    3B.0
040A:  MOVF   3B,W
040B:  BSF    03.5
040C:  MOVWF  07
040D:  BCF    03.5
040E:  BSF    07.0
.................... delay_ms(100); 
040F:  MOVLW  64
0410:  MOVWF  3D
0411:  CALL   01A
.................... } 
0412:  BCF    0A.3
0413:  BCF    0A.4
0414:  GOTO   49F (RETURN)
....................  
....................  
.................... } 

Configuration Fuses:
   Word  1: 2F42   HS NOWDT PUT BROWNOUT NOLVP NOCPD NOWRT NODEBUG NOPROTECT
